target datalayout = "e-m:e-p270:32:32-p271:32:32-p272:64:64-i64:64-i128:128-f80:128-n8:16:32:64-S128"
target triple = "x86_64-pc-linux-gnu"

%struct.darktable_t = type { %struct.dt_codepath_t, i32, i32, ptr, ptr, ptr, ptr, ptr, ptr, ptr, ptr, ptr, ptr, ptr, ptr, ptr, ptr, ptr, ptr, ptr, ptr, ptr, ptr, ptr, ptr, ptr, ptr, ptr, ptr, ptr, [64 x %struct.dt_pthread_mutex_t], %struct.dt_pthread_mutex_t, %struct.dt_pthread_mutex_t, %struct.dt_pthread_mutex_t, %struct.dt_pthread_mutex_t, %struct.dt_pthread_mutex_t, ptr, ptr, ptr, ptr, ptr, ptr, ptr, ptr, ptr, ptr, ptr, ptr, ptr, %struct.dt_lua_state_t, ptr, double, ptr, i32, [47 x i32], i32, i32, ptr, ptr, %struct.dt_sys_resources_t, %struct.dt_backthumb_t, %struct.dt_gimp_t }
%struct.dt_codepath_t = type { i8, [3 x i8] }
%struct.dt_pthread_mutex_t = type { %union.pthread_mutex_t }
%union.pthread_mutex_t = type { %struct.__pthread_mutex_s }
%struct.__pthread_mutex_s = type { i32, i32, i32, i32, i32, i16, i16, %struct.__pthread_internal_list }
%struct.__pthread_internal_list = type { ptr, ptr }
%struct.dt_lua_state_t = type { i32 }
%struct.dt_sys_resources_t = type { i64, i64, ptr, ptr, i32 }
%struct.dt_backthumb_t = type { double, double, i32, i32, i32, i32 }
%struct.dt_gimp_t = type { i32, ptr, ptr, i32, i32 }

@darktable = external global %struct.darktable_t, align 8
@.str = private unnamed_addr constant [24 x i8] c"0001-01-01 00:00:00.000\00", align 1
@.str.3 = private unnamed_addr constant [18 x i8] c"%Y:%m:%d %H:%M:%S\00", align 1
@.str.4 = private unnamed_addr constant [4 x i8] c"now\00", align 1
@.str.6 = private unnamed_addr constant [9 x i8] c"%s%s%03d\00", align 1
@.str.7 = private unnamed_addr constant [2 x i8] c".\00", align 1

; Function Attrs: nounwind uwtable
define internal ptr @_datetime_append_msec(ptr noundef %0, ptr noundef %1) #0 {
  %3 = alloca ptr, align 8
  %4 = alloca ptr, align 8
  store ptr %0, ptr %3, align 8, !tbaa !60
  store ptr %1, ptr %4, align 8, !tbaa !51
  %5 = load ptr, ptr %3, align 8, !tbaa !60
  %6 = load ptr, ptr %4, align 8, !tbaa !51
  %7 = call i32 @g_date_time_get_microsecond(ptr noundef %6)
  %8 = sitofp i32 %7 to double
  %9 = fmul reassoc nsz arcp contract afn double %8, 1.000000e-03
  %10 = fptosi double %9 to i32
  %11 = call noalias ptr (ptr, ...) @g_strdup_printf(ptr noundef @.str.6, ptr noundef %5, ptr noundef @.str.7, i32 noundef %10)
  ret ptr %11
}

; Function Attrs: nounwind uwtable
define i32 @dt_datetime_gdatetime_to_exif(ptr noundef %0, i64 noundef %1, ptr noundef %2) #0 {
  %4 = alloca i32, align 4
  %5 = alloca ptr, align 8
  %6 = alloca i64, align 8
  %7 = alloca ptr, align 8
  %8 = alloca ptr, align 8
  %9 = alloca ptr, align 8
  %10 = alloca i32, align 4
  store ptr %0, ptr %5, align 8, !tbaa !60
  store i64 %1, ptr %6, align 8, !tbaa !67
  store ptr %2, ptr %7, align 8, !tbaa !51
  %11 = load ptr, ptr %5, align 8, !tbaa !60
  %12 = icmp ne ptr %11, null
  br i1 %12, label %13, label %19

13:                                               ; preds = %3
  %14 = load i64, ptr %6, align 8, !tbaa !67
  %15 = icmp ne i64 %14, 0
  br i1 %15, label %16, label %19

16:                                               ; preds = %13
  %17 = load ptr, ptr %7, align 8, !tbaa !51
  %18 = icmp ne ptr %17, null
  br i1 %18, label %20, label %19

19:                                               ; preds = %16, %13, %3
  store i32 0, ptr %4, align 4
  br label %44

20:                                               ; preds = %16
  %21 = load ptr, ptr %5, align 8, !tbaa !60
  %22 = getelementptr inbounds i8, ptr %21, i64 0
  store i8 0, ptr %22, align 1, !tbaa !61
  call void @llvm.lifetime.start.p0(i64 8, ptr %8) #7
  %23 = load ptr, ptr %7, align 8, !tbaa !51
  %24 = call noalias ptr @g_date_time_format(ptr noundef %23, ptr noundef @.str.3)
  store ptr %24, ptr %8, align 8, !tbaa !60
  %25 = load ptr, ptr %8, align 8, !tbaa !60
  %26 = icmp ne ptr %25, null
  br i1 %26, label %27, label %42

27:                                               ; preds = %20
  %28 = load i64, ptr %6, align 8, !tbaa !67
  %29 = icmp eq i64 %28, 24
  br i1 %29, label %30, label %36

30:                                               ; preds = %27
  call void @llvm.lifetime.start.p0(i64 8, ptr %9) #7
  %31 = load ptr, ptr %8, align 8, !tbaa !60
  %32 = load ptr, ptr %7, align 8, !tbaa !51
  %33 = call ptr @_datetime_append_msec(ptr noundef %31, ptr noundef %32)
  store ptr %33, ptr %9, align 8, !tbaa !60
  %34 = load ptr, ptr %8, align 8, !tbaa !60
  call void @g_free(ptr noundef %34)
  %35 = load ptr, ptr %9, align 8, !tbaa !60
  store ptr %35, ptr %8, align 8, !tbaa !60
  call void @llvm.lifetime.end.p0(i64 8, ptr %9) #7
  br label %36

36:                                               ; preds = %30, %27
  %37 = load ptr, ptr %5, align 8, !tbaa !60
  %38 = load ptr, ptr %8, align 8, !tbaa !60
  %39 = load i64, ptr %6, align 8, !tbaa !67
  %40 = call i64 @g_strlcpy(ptr noundef %37, ptr noundef %38, i64 noundef %39)
  %41 = load ptr, ptr %8, align 8, !tbaa !60
  call void @g_free(ptr noundef %41)
  store i32 1, ptr %4, align 4
  store i32 1, ptr %10, align 4
  br label %43

42:                                               ; preds = %20
  store i32 0, ptr %4, align 4
  store i32 1, ptr %10, align 4
  br label %43

43:                                               ; preds = %42, %36
  call void @llvm.lifetime.end.p0(i64 8, ptr %8) #7
  br label %44

44:                                               ; preds = %43, %19
  %45 = load i32, ptr %4, align 4
  ret i32 %45
}

; Function Attrs: nounwind uwtable
define void @dt_datetime_now_to_exif(ptr noundef %0) #0 {
  %2 = alloca ptr, align 8
  %3 = alloca ptr, align 8
  store ptr %0, ptr %2, align 8, !tbaa !60
  %4 = load ptr, ptr %2, align 8, !tbaa !60
  %5 = icmp ne ptr %4, null
  br i1 %5, label %7, label %6

6:                                                ; preds = %1
  br label %19

7:                                                ; preds = %1
  %8 = load ptr, ptr %2, align 8, !tbaa !60
  %9 = getelementptr inbounds i8, ptr %8, i64 0
  store i8 0, ptr %9, align 1, !tbaa !61
  call void @llvm.lifetime.start.p0(i64 8, ptr %3) #7
  %10 = call ptr @g_date_time_new_now_local()
  store ptr %10, ptr %3, align 8, !tbaa !51
  %11 = load ptr, ptr %3, align 8, !tbaa !51
  %12 = icmp ne ptr %11, null
  br i1 %12, label %13, label %18

13:                                               ; preds = %7
  %14 = load ptr, ptr %2, align 8, !tbaa !60
  %15 = load ptr, ptr %3, align 8, !tbaa !51
  %16 = call i32 @dt_datetime_gdatetime_to_exif(ptr noundef %14, i64 noundef 20, ptr noundef %15)
  %17 = load ptr, ptr %3, align 8, !tbaa !51
  call void @g_date_time_unref(ptr noundef %17)
  br label %18

18:                                               ; preds = %13, %7
  call void @llvm.lifetime.end.p0(i64 8, ptr %3) #7
  br label %19

19:                                               ; preds = %18, %6
  ret void
}

; Function Attrs: nounwind uwtable
define i32 @dt_datetime_entry_to_exif_upper_bound(ptr noundef %0, i64 noundef %1, ptr noundef %2) #0 {
  %4 = alloca i32, align 4
  %5 = alloca ptr, align 8
  %6 = alloca i64, align 8
  %7 = alloca ptr, align 8
  %8 = alloca i32, align 4
  %9 = alloca i32, align 4
  %10 = alloca [24 x i8], align 16
  %11 = alloca ptr, align 8
  %12 = alloca ptr, align 8
  %13 = alloca ptr, align 8
  %14 = alloca i32, align 4
  store ptr %0, ptr %5, align 8, !tbaa !60
  store i64 %1, ptr %6, align 8, !tbaa !67
  store ptr %2, ptr %7, align 8, !tbaa !60
  %15 = load ptr, ptr %5, align 8, !tbaa !60
  %16 = icmp ne ptr %15, null
  br i1 %16, label %17, label %20

17:                                               ; preds = %3
  %18 = load i64, ptr %6, align 8, !tbaa !67
  %19 = icmp ne i64 %18, 0
  br i1 %19, label %21, label %20

20:                                               ; preds = %17, %3
  store i32 0, ptr %4, align 4
  br label %123

21:                                               ; preds = %17
  %22 = load ptr, ptr %5, align 8, !tbaa !60
  %23 = getelementptr inbounds i8, ptr %22, i64 0
  store i8 0, ptr %23, align 1, !tbaa !61
  %24 = load ptr, ptr %7, align 8, !tbaa !60
  %25 = call i32 @strcmp(ptr noundef %24, ptr noundef @.str.4) #8
  %26 = icmp eq i32 %25, 0
  br i1 %26, label %27, label %29

27:                                               ; preds = %21
  %28 = load ptr, ptr %5, align 8, !tbaa !60
  call void @dt_datetime_now_to_exif(ptr noundef %28)
  store i32 1, ptr %4, align 4
  br label %123

29:                                               ; preds = %21
  call void @llvm.lifetime.start.p0(i64 4, ptr %8) #7
  %30 = load ptr, ptr %7, align 8, !tbaa !60
  %31 = call i64 @strlen(ptr noundef %30) #8
  %32 = trunc i64 %31 to i32
  store i32 %32, ptr %8, align 4, !tbaa !62
  %33 = load i32, ptr %8, align 4, !tbaa !62
  %34 = icmp sgt i32 %33, 23
  br i1 %34, label %35, label %36

35:                                               ; preds = %29
  store i32 0, ptr %4, align 4
  store i32 1, ptr %9, align 4
  br label %122

36:                                               ; preds = %29
  call void @llvm.lifetime.start.p0(i64 24, ptr %10) #7
  %37 = getelementptr inbounds [24 x i8], ptr %10, i64 0, i64 0
  %38 = call i64 @g_strlcpy(ptr noundef %37, ptr noundef @.str, i64 noundef 24)
  %39 = getelementptr inbounds [24 x i8], ptr %10, i64 0, i64 0
  %40 = load ptr, ptr %7, align 8, !tbaa !60
  %41 = load ptr, ptr %7, align 8, !tbaa !60
  %42 = call i64 @strlen(ptr noundef %41) #8
  call void @llvm.memcpy.p0.p0.i64(ptr align 16 %39, ptr align 1 %40, i64 %42, i1 false)
  %43 = getelementptr inbounds [24 x i8], ptr %10, i64 0, i64 7
  store i8 45, ptr %43, align 1, !tbaa !61
  %44 = getelementptr inbounds [24 x i8], ptr %10, i64 0, i64 4
  store i8 45, ptr %44, align 4, !tbaa !61
  call void @llvm.lifetime.start.p0(i64 8, ptr %11) #7
  %45 = getelementptr inbounds [24 x i8], ptr %10, i64 0, i64 0
  %46 = load ptr, ptr getelementptr inbounds nuw (%struct.darktable_t, ptr @darktable, i32 0, i32 57), align 8, !tbaa !6
  %47 = call ptr @g_date_time_new_from_iso8601(ptr noundef %45, ptr noundef %46)
  store ptr %47, ptr %11, align 8, !tbaa !51
  %48 = load ptr, ptr %11, align 8, !tbaa !51
  %49 = icmp ne ptr %48, null
  br i1 %49, label %50, label %120

50:                                               ; preds = %36
  call void @llvm.lifetime.start.p0(i64 8, ptr %12) #7
  store ptr null, ptr %12, align 8, !tbaa !51
  %51 = load i32, ptr %8, align 4, !tbaa !62
  %52 = icmp slt i32 %51, 7
  br i1 %52, label %53, label %56

53:                                               ; preds = %50
  %54 = load ptr, ptr %11, align 8, !tbaa !51
  %55 = call ptr @g_date_time_add_years(ptr noundef %54, i32 noundef 1)
  store ptr %55, ptr %12, align 8, !tbaa !51
  br label %94

56:                                               ; preds = %50
  %57 = load i32, ptr %8, align 4, !tbaa !62
  %58 = icmp slt i32 %57, 10
  br i1 %58, label %59, label %62

59:                                               ; preds = %56
  %60 = load ptr, ptr %11, align 8, !tbaa !51
  %61 = call ptr @g_date_time_add_months(ptr noundef %60, i32 noundef 1)
  store ptr %61, ptr %12, align 8, !tbaa !51
  br label %93

62:                                               ; preds = %56
  %63 = load i32, ptr %8, align 4, !tbaa !62
  %64 = icmp slt i32 %63, 13
  br i1 %64, label %65, label %68

65:                                               ; preds = %62
  %66 = load ptr, ptr %11, align 8, !tbaa !51
  %67 = call ptr @g_date_time_add_days(ptr noundef %66, i32 noundef 1)
  store ptr %67, ptr %12, align 8, !tbaa !51
  br label %92

68:                                               ; preds = %62
  %69 = load i32, ptr %8, align 4, !tbaa !62
  %70 = icmp slt i32 %69, 16
  br i1 %70, label %71, label %74

71:                                               ; preds = %68
  %72 = load ptr, ptr %11, align 8, !tbaa !51
  %73 = call ptr @g_date_time_add_hours(ptr noundef %72, i32 noundef 1)
  store ptr %73, ptr %12, align 8, !tbaa !51
  br label %91

74:                                               ; preds = %68
  %75 = load i32, ptr %8, align 4, !tbaa !62
  %76 = icmp slt i32 %75, 19
  br i1 %76, label %77, label %80

77:                                               ; preds = %74
  %78 = load ptr, ptr %11, align 8, !tbaa !51
  %79 = call ptr @g_date_time_add_minutes(ptr noundef %78, i32 noundef 1)
  store ptr %79, ptr %12, align 8, !tbaa !51
  br label %90

80:                                               ; preds = %74
  %81 = load i32, ptr %8, align 4, !tbaa !62
  %82 = icmp slt i32 %81, 23
  br i1 %82, label %83, label %86

83:                                               ; preds = %80
  %84 = load ptr, ptr %11, align 8, !tbaa !51
  %85 = call ptr @g_date_time_add_seconds(ptr noundef %84, double noundef 1.000000e+00)
  store ptr %85, ptr %12, align 8, !tbaa !51
  br label %89

86:                                               ; preds = %80
  %87 = load ptr, ptr %11, align 8, !tbaa !51
  %88 = call ptr @g_date_time_add(ptr noundef %87, i64 noundef 2)
  store ptr %88, ptr %12, align 8, !tbaa !51
  br label %89

89:                                               ; preds = %86, %83
  br label %90

90:                                               ; preds = %89, %77
  br label %91

91:                                               ; preds = %90, %71
  br label %92

92:                                               ; preds = %91, %65
  br label %93

93:                                               ; preds = %92, %59
  br label %94

94:                                               ; preds = %93, %53
  %95 = load ptr, ptr %11, align 8, !tbaa !51
  call void @g_date_time_unref(ptr noundef %95)
  %96 = load ptr, ptr %12, align 8, !tbaa !51
  %97 = icmp ne ptr %96, null
  br i1 %97, label %98, label %116

98:                                               ; preds = %94
  call void @llvm.lifetime.start.p0(i64 8, ptr %13) #7
  %99 = load ptr, ptr %12, align 8, !tbaa !51
  %100 = call ptr @g_date_time_add(ptr noundef %99, i64 noundef -1)
  store ptr %100, ptr %13, align 8, !tbaa !51
  %101 = load ptr, ptr %12, align 8, !tbaa !51
  call void @g_date_time_unref(ptr noundef %101)
  %102 = load ptr, ptr %13, align 8, !tbaa !51
  store ptr %102, ptr %11, align 8, !tbaa !51
  %103 = load ptr, ptr %11, align 8, !tbaa !51
  %104 = icmp ne ptr %103, null
  br i1 %104, label %105, label %112

105:                                              ; preds = %98
  call void @llvm.lifetime.start.p0(i64 4, ptr %14) #7
  %106 = load ptr, ptr %5, align 8, !tbaa !60
  %107 = load i64, ptr %6, align 8, !tbaa !67
  %108 = load ptr, ptr %11, align 8, !tbaa !51
  %109 = call i32 @dt_datetime_gdatetime_to_exif(ptr noundef %106, i64 noundef %107, ptr noundef %108)
  store i32 %109, ptr %14, align 4, !tbaa !62
  %110 = load ptr, ptr %11, align 8, !tbaa !51
  call void @g_date_time_unref(ptr noundef %110)
  %111 = load i32, ptr %14, align 4, !tbaa !62
  store i32 %111, ptr %4, align 4
  store i32 1, ptr %9, align 4
  call void @llvm.lifetime.end.p0(i64 4, ptr %14) #7
  br label %113

112:                                              ; preds = %98
  store i32 0, ptr %9, align 4
  br label %113

113:                                              ; preds = %112, %105
  call void @llvm.lifetime.end.p0(i64 8, ptr %13) #7
  %114 = load i32, ptr %9, align 4
  switch i32 %114, label %117 [
    i32 0, label %115
  ]

115:                                              ; preds = %113
  br label %116

116:                                              ; preds = %115, %94
  store i32 0, ptr %9, align 4
  br label %117

117:                                              ; preds = %116, %113
  call void @llvm.lifetime.end.p0(i64 8, ptr %12) #7
  %118 = load i32, ptr %9, align 4
  switch i32 %118, label %121 [
    i32 0, label %119
  ]

119:                                              ; preds = %117
  br label %120

120:                                              ; preds = %119, %36
  store i32 0, ptr %4, align 4
  store i32 1, ptr %9, align 4
  br label %121

121:                                              ; preds = %120, %117
  call void @llvm.lifetime.end.p0(i64 8, ptr %11) #7
  call void @llvm.lifetime.end.p0(i64 24, ptr %10) #7
  br label %122

122:                                              ; preds = %121, %35
  call void @llvm.lifetime.end.p0(i64 4, ptr %8) #7
  br label %123

123:                                              ; preds = %122, %27, %20
  %124 = load i32, ptr %4, align 4
  ret i32 %124
}