; Function Attrs: nounwind uwtable
define range(i32 0, 2) i32 @dt_datetime_entry_to_exif_upper_bound(ptr noundef %0, i64 noundef %1, ptr noundef readonly captures(none) %2) local_unnamed_addr #0 {
  %4 = alloca [24 x i8], align 16
  %5 = icmp ne ptr %0, null
  %6 = icmp ne i64 %1, 0
  %or.cond = and i1 %5, %6
  br i1 %or.cond, label %7, label %dt_datetime_now_to_exif.exit

7:                                                ; preds = %3
  store i8 0, ptr %0, align 1, !tbaa !57
  %8 = tail call i32 @strcmp(ptr noundef nonnull dereferenceable(1) %2, ptr noundef nonnull dereferenceable(4) @.str.4) #8
  %9 = icmp eq i32 %8, 0
  br i1 %9, label %10, label %16

10:                                               ; preds = %7
  %11 = tail call ptr @g_date_time_new_now_local() #7
  %.not7.i = icmp eq ptr %11, null
  br i1 %.not7.i, label %dt_datetime_now_to_exif.exit, label %12

12:                                               ; preds = %10
  store i8 0, ptr %0, align 1, !tbaa !57
  %13 = tail call noalias ptr @g_date_time_format(ptr noundef nonnull %11, ptr noundef nonnull @.str.3) #7
  %.not.i.i = icmp eq ptr %13, null
  br i1 %.not.i.i, label %dt_datetime_gdatetime_to_exif.exit.i, label %14

14:                                               ; preds = %12
  %15 = tail call i64 @g_strlcpy(ptr noundef nonnull %0, ptr noundef nonnull %13, i64 noundef 20) #7
  tail call void @g_free(ptr noundef nonnull %13) #7
  br label %dt_datetime_gdatetime_to_exif.exit.i

dt_datetime_gdatetime_to_exif.exit.i:             ; preds = %14, %12
  tail call void @g_date_time_unref(ptr noundef nonnull %11) #7
  br label %dt_datetime_now_to_exif.exit

16:                                               ; preds = %7
  %17 = tail call i64 @strlen(ptr noundef nonnull dereferenceable(1) %2) #8
  %18 = trunc i64 %17 to i32
  %19 = icmp sgt i32 %18, 23
  br i1 %19, label %dt_datetime_now_to_exif.exit, label %20

20:                                               ; preds = %16
  call void @llvm.lifetime.start.p0(i64 24, ptr nonnull %4) #7
  %21 = call i64 @g_strlcpy(ptr noundef nonnull %4, ptr noundef nonnull @__const.dt_datetime_exif_to_numbers.sdt, i64 noundef 24) #7
  %22 = call i64 @strlen(ptr noundef nonnull dereferenceable(1) %2) #8
  call void @llvm.memcpy.p0.p0.i64(ptr nonnull align 16 %4, ptr nonnull align 1 %2, i64 %22, i1 false)
  %23 = getelementptr inbounds nuw i8, ptr %4, i64 7
  store i8 45, ptr %23, align 1, !tbaa !57
  %24 = getelementptr inbounds nuw i8, ptr %4, i64 4
  store i8 45, ptr %24, align 4, !tbaa !57
  %25 = load ptr, ptr getelementptr inbounds nuw (i8, ptr @darktable, i64 3328), align 8, !tbaa !6
  %26 = call ptr @g_date_time_new_from_iso8601(ptr noundef nonnull %4, ptr noundef %25) #7
  %.not = icmp eq ptr %26, null
  br i1 %.not, label %.thread, label %27

27:                                               ; preds = %20
  %28 = icmp slt i32 %18, 7
  br i1 %28, label %29, label %31

29:                                               ; preds = %27
  %30 = call ptr @g_date_time_add_years(ptr noundef nonnull %26, i32 noundef 1) #7
  br label %52

31:                                               ; preds = %27
  %32 = icmp samesign ult i32 %18, 10
  br i1 %32, label %33, label %35

33:                                               ; preds = %31
  %34 = call ptr @g_date_time_add_months(ptr noundef nonnull %26, i32 noundef 1) #7
  br label %52

35:                                               ; preds = %31
  %36 = icmp samesign ult i32 %18, 13
  br i1 %36, label %37, label %39

37:                                               ; preds = %35
  %38 = call ptr @g_date_time_add_days(ptr noundef nonnull %26, i32 noundef 1) #7
  br label %52

39:                                               ; preds = %35
  %40 = icmp samesign ult i32 %18, 16
  br i1 %40, label %41, label %43

41:                                               ; preds = %39
  %42 = call ptr @g_date_time_add_hours(ptr noundef nonnull %26, i32 noundef 1) #7
  br label %52

43:                                               ; preds = %39
  %44 = icmp samesign ult i32 %18, 19
  br i1 %44, label %45, label %47

45:                                               ; preds = %43
  %46 = call ptr @g_date_time_add_minutes(ptr noundef nonnull %26, i32 noundef 1) #7
  br label %52

47:                                               ; preds = %43
  %.not46 = icmp eq i32 %18, 23
  br i1 %.not46, label %50, label %48

48:                                               ; preds = %47
  %49 = call ptr @g_date_time_add_seconds(ptr noundef nonnull %26, double noundef 1.000000e+00) #7
  br label %52

50:                                               ; preds = %47
  %51 = call ptr @g_date_time_add(ptr noundef nonnull %26, i64 noundef 2) #7
  br label %52

52:                                               ; preds = %33, %41, %48, %50, %45, %37, %29
  %.040 = phi ptr [ %30, %29 ], [ %34, %33 ], [ %38, %37 ], [ %42, %41 ], [ %46, %45 ], [ %49, %48 ], [ %51, %50 ]
  call void @g_date_time_unref(ptr noundef nonnull %26) #7
  %.not47 = icmp eq ptr %.040, null
  br i1 %.not47, label %.thread, label %53

53:                                               ; preds = %52
  %54 = call ptr @g_date_time_add(ptr noundef nonnull %.040, i64 noundef -1) #7
  call void @g_date_time_unref(ptr noundef nonnull %.040) #7
  %.not48 = icmp eq ptr %54, null
  br i1 %.not48, label %.thread, label %55

55:                                               ; preds = %53
  store i8 0, ptr %0, align 1, !tbaa !57
  %56 = call noalias ptr @g_date_time_format(ptr noundef nonnull %54, ptr noundef nonnull @.str.3) #7
  %.not.i49 = icmp eq ptr %56, null
  br i1 %.not.i49, label %67, label %57

57:                                               ; preds = %55
  %58 = icmp eq i64 %1, 24
  br i1 %58, label %59, label %65

59:                                               ; preds = %57
  %60 = call i32 @g_date_time_get_microsecond(ptr noundef nonnull %54) #7
  %61 = sitofp i32 %60 to double
  %62 = fmul reassoc nsz arcp contract afn double %61, 1.000000e-03
  %63 = fptosi double %62 to i32
  %64 = call noalias ptr (ptr, ...) @g_strdup_printf(ptr noundef nonnull @.str.6, ptr noundef nonnull %56, ptr noundef nonnull @.str.7, i32 noundef %63) #7
  call void @g_free(ptr noundef nonnull %56) #7
  br label %65

65:                                               ; preds = %59, %57
  %.018.i = phi ptr [ %64, %59 ], [ %56, %57 ]
  %66 = call i64 @g_strlcpy(ptr noundef nonnull %0, ptr noundef %.018.i, i64 noundef %1) #7
  call void @g_free(ptr noundef %.018.i) #7
  br label %67

67:                                               ; preds = %65, %55
  %.0.i = phi i32 [ 1, %65 ], [ 0, %55 ]
  call void @g_date_time_unref(ptr noundef nonnull %54) #7
  br label %.thread

.thread:                                          ; preds = %53, %52, %20, %67
  %.5 = phi i32 [ %.0.i, %67 ], [ 0, %20 ], [ 0, %52 ], [ 0, %53 ]
  call void @llvm.lifetime.end.p0(i64 24, ptr nonnull %4) #7
  br label %dt_datetime_now_to_exif.exit

dt_datetime_now_to_exif.exit:                     ; preds = %dt_datetime_gdatetime_to_exif.exit.i, %10, %.thread, %16, %3
  %.0 = phi i32 [ 0, %3 ], [ %.5, %.thread ], [ 0, %16 ], [ 1, %10 ], [ 1, %dt_datetime_gdatetime_to_exif.exit.i ]
  ret i32 %.0
}